target datalayout = "e-m:e-p270:32:32-p271:32:32-p272:64:64-i64:64-i128:128-f80:128-n8:16:32:64-S128"
target triple = "x86_64-pc-linux-gnu"

%"class.cv::xfeatures2d::LUCIDImpl" = type { %"class.cv::xfeatures2d::LUCID", i32, i32 }
%"class.cv::xfeatures2d::LUCID" = type { %"class.cv::Feature2D" }
%"class.cv::Feature2D" = type { %"class.cv::Algorithm" }
%"class.cv::Algorithm" = type { ptr }
%"class.cv::FileNode" = type { ptr, i64, i64 }

@.str = private unnamed_addr constant [13 x i8] c"lucid_kernel\00", align 1
@.str.1 = private unnamed_addr constant [12 x i8] c"blur_kernel\00", align 1

; Function Attrs: inlinehint mustprogress uwtable
define internal void @_ZN2cvrsIiEEvRKNS_8FileNodeERT_(ptr noundef nonnull align 8 dereferenceable(24) %0, ptr noundef nonnull align 4 dereferenceable(4) %1) #2 {
  %3 = alloca ptr, align 8
  %4 = alloca ptr, align 8
  store ptr %0, ptr %3, align 8, !tbaa !27
  store ptr %1, ptr %4, align 8, !tbaa !7
  %5 = load ptr, ptr %3, align 8, !tbaa !27
  %6 = load ptr, ptr %4, align 8, !tbaa !7
  call void @_ZN2cv4readERKNS_8FileNodeERii(ptr noundef nonnull align 8 dereferenceable(24) %5, ptr noundef nonnull align 4 dereferenceable(4) %6, i32 noundef 0)
  ret void
}

; Function Attrs: mustprogress uwtable
define hidden void @_ZN2cv11xfeatures2d9LUCIDImpl4readERKNS_8FileNodeE(ptr noundef nonnull align 8 dereferenceable(16) %0, ptr noundef nonnull align 8 dereferenceable(24) %1) unnamed_addr #0 align 2 {
  %3 = alloca ptr, align 8
  %4 = alloca ptr, align 8
  %5 = alloca %"class.cv::FileNode", align 8
  %6 = alloca %"class.cv::FileNode", align 8
  %7 = alloca %"class.cv::FileNode", align 8
  %8 = alloca i32, align 4
  %9 = alloca %"class.cv::FileNode", align 8
  store ptr %0, ptr %3, align 8, !tbaa !14
  store ptr %1, ptr %4, align 8, !tbaa !27
  %10 = load ptr, ptr %3, align 8
  call void @llvm.lifetime.start.p0(i64 24, ptr %5) #18
  %11 = load ptr, ptr %4, align 8, !tbaa !27
  call void @_ZNK2cv8FileNodeixEPKc(ptr dead_on_unwind writable sret(%"class.cv::FileNode") align 8 %5, ptr noundef nonnull align 8 dereferenceable(24) %11, ptr noundef @.str)
  %12 = call noundef zeroext i1 @_ZNK2cv8FileNode5emptyEv(ptr noundef nonnull align 8 dereferenceable(24) %5)
  %13 = xor i1 %12, true
  call void @llvm.lifetime.end.p0(i64 24, ptr %5) #18
  br i1 %13, label %14, label %17

14:                                               ; preds = %2
  call void @llvm.lifetime.start.p0(i64 24, ptr %6) #18
  %15 = load ptr, ptr %4, align 8, !tbaa !27
  call void @_ZNK2cv8FileNodeixEPKc(ptr dead_on_unwind writable sret(%"class.cv::FileNode") align 8 %6, ptr noundef nonnull align 8 dereferenceable(24) %15, ptr noundef @.str)
  %16 = getelementptr inbounds nuw %"class.cv::xfeatures2d::LUCIDImpl", ptr %10, i32 0, i32 1
  call void @_ZN2cvrsIiEEvRKNS_8FileNodeERT_(ptr noundef nonnull align 8 dereferenceable(24) %6, ptr noundef nonnull align 4 dereferenceable(4) %16)
  call void @llvm.lifetime.end.p0(i64 24, ptr %6) #18
  br label %17

17:                                               ; preds = %14, %2
  call void @llvm.lifetime.start.p0(i64 24, ptr %7) #18
  %18 = load ptr, ptr %4, align 8, !tbaa !27
  call void @_ZNK2cv8FileNodeixEPKc(ptr dead_on_unwind writable sret(%"class.cv::FileNode") align 8 %7, ptr noundef nonnull align 8 dereferenceable(24) %18, ptr noundef @.str.1)
  %19 = call noundef zeroext i1 @_ZNK2cv8FileNode5emptyEv(ptr noundef nonnull align 8 dereferenceable(24) %7)
  %20 = xor i1 %19, true
  call void @llvm.lifetime.end.p0(i64 24, ptr %7) #18
  br i1 %20, label %21, label %27

21:                                               ; preds = %17
  call void @llvm.lifetime.start.p0(i64 4, ptr %8) #18
  call void @llvm.lifetime.start.p0(i64 24, ptr %9) #18
  %22 = load ptr, ptr %4, align 8, !tbaa !27
  call void @_ZNK2cv8FileNodeixEPKc(ptr dead_on_unwind writable sret(%"class.cv::FileNode") align 8 %9, ptr noundef nonnull align 8 dereferenceable(24) %22, ptr noundef @.str.1)
  call void @_ZN2cvrsIiEEvRKNS_8FileNodeERT_(ptr noundef nonnull align 8 dereferenceable(24) %9, ptr noundef nonnull align 4 dereferenceable(4) %8)
  call void @llvm.lifetime.end.p0(i64 24, ptr %9) #18
  %23 = load i32, ptr %8, align 4, !tbaa !3
  %24 = mul nsw i32 %23, 2
  %25 = add nsw i32 %24, 1
  %26 = getelementptr inbounds nuw %"class.cv::xfeatures2d::LUCIDImpl", ptr %10, i32 0, i32 2
  store i32 %25, ptr %26, align 4, !tbaa !24
  call void @llvm.lifetime.end.p0(i64 4, ptr %8) #18
  br label %27

27:                                               ; preds = %21, %17
  ret void
}